target datalayout = "e-m:e-p270:32:32-p271:32:32-p272:64:64-i64:64-i128:128-f80:128-n8:16:32:64-S128"
target triple = "x86_64-pc-linux-gnu"

%struct._phpdbg_param = type { i32, i64, i64, %struct.anon, %struct.anon.0, ptr, i64, ptr, ptr }
%struct.anon = type { ptr, i64 }
%struct.anon.0 = type { ptr, ptr }

@.str.9 = private unnamed_addr constant [8 x i8] c"unknown\00", align 1
@.str.10 = private unnamed_addr constant [3 x i8] c"%s\00", align 1
@.str.11 = private unnamed_addr constant [4 x i8] c"%lu\00", align 1
@.str.12 = private unnamed_addr constant [4 x i8] c"%ld\00", align 1
@.str.13 = private unnamed_addr constant [7 x i8] c"%s::%s\00", align 1
@.str.14 = private unnamed_addr constant [11 x i8] c"%s:%lu#%lu\00", align 1
@.str.15 = private unnamed_addr constant [7 x i8] c"%s:%lu\00", align 1
@.str.16 = private unnamed_addr constant [7 x i8] c"%s#%lu\00", align 1
@.str.17 = private unnamed_addr constant [11 x i8] c"%s::%s#%lu\00", align 1

; Function Attrs: nounwind uwtable
define ptr @phpdbg_param_tostring(ptr noundef %0, ptr noundef %1) #0 {
  %3 = alloca ptr, align 8
  %4 = alloca ptr, align 8
  %5 = alloca i32, align 4
  %6 = alloca i32, align 4
  %7 = alloca i32, align 4
  %8 = alloca i32, align 4
  %9 = alloca i32, align 4
  %10 = alloca i32, align 4
  %11 = alloca i32, align 4
  %12 = alloca i32, align 4
  store ptr %0, ptr %3, align 8
  store ptr %1, ptr %4, align 8
  %13 = load ptr, ptr %3, align 8
  %14 = getelementptr inbounds %struct._phpdbg_param, ptr %13, i32 0, i32 0
  %15 = load i32, ptr %14, align 8
  switch i32 %15, label %99 [
    i32 5, label %16
    i32 1, label %22
    i32 6, label %28
    i32 4, label %34
    i32 2, label %45
    i32 7, label %76
    i32 8, label %85
  ]

16:                                               ; preds = %2
  %17 = load ptr, ptr %4, align 8
  %18 = load ptr, ptr %3, align 8
  %19 = getelementptr inbounds %struct._phpdbg_param, ptr %18, i32 0, i32 5
  %20 = load ptr, ptr %19, align 8
  %21 = call i32 (ptr, ptr, ...) @asprintf(ptr noundef %17, ptr noundef @.str.10, ptr noundef %20) #12
  store i32 %21, ptr %5, align 4
  br label %102

22:                                               ; preds = %2
  %23 = load ptr, ptr %4, align 8
  %24 = load ptr, ptr %3, align 8
  %25 = getelementptr inbounds %struct._phpdbg_param, ptr %24, i32 0, i32 2
  %26 = load i64, ptr %25, align 8
  %27 = call i32 (ptr, ptr, ...) @asprintf(ptr noundef %23, ptr noundef @.str.11, i64 noundef %26) #12
  store i32 %27, ptr %6, align 4
  br label %102

28:                                               ; preds = %2
  %29 = load ptr, ptr %4, align 8
  %30 = load ptr, ptr %3, align 8
  %31 = getelementptr inbounds %struct._phpdbg_param, ptr %30, i32 0, i32 1
  %32 = load i64, ptr %31, align 8
  %33 = call i32 (ptr, ptr, ...) @asprintf(ptr noundef %29, ptr noundef @.str.12, i64 noundef %32) #12
  store i32 %33, ptr %7, align 4
  br label %102

34:                                               ; preds = %2
  %35 = load ptr, ptr %4, align 8
  %36 = load ptr, ptr %3, align 8
  %37 = getelementptr inbounds %struct._phpdbg_param, ptr %36, i32 0, i32 4
  %38 = getelementptr inbounds %struct.anon.0, ptr %37, i32 0, i32 0
  %39 = load ptr, ptr %38, align 8
  %40 = load ptr, ptr %3, align 8
  %41 = getelementptr inbounds %struct._phpdbg_param, ptr %40, i32 0, i32 4
  %42 = getelementptr inbounds %struct.anon.0, ptr %41, i32 0, i32 1
  %43 = load ptr, ptr %42, align 8
  %44 = call i32 (ptr, ptr, ...) @asprintf(ptr noundef %35, ptr noundef @.str.13, ptr noundef %39, ptr noundef %43) #12
  store i32 %44, ptr %8, align 4
  br label %102

45:                                               ; preds = %2
  %46 = load ptr, ptr %3, align 8
  %47 = getelementptr inbounds %struct._phpdbg_param, ptr %46, i32 0, i32 1
  %48 = load i64, ptr %47, align 8
  %49 = icmp ne i64 %48, 0
  br i1 %49, label %50, label %64

50:                                               ; preds = %45
  %51 = load ptr, ptr %4, align 8
  %52 = load ptr, ptr %3, align 8
  %53 = getelementptr inbounds %struct._phpdbg_param, ptr %52, i32 0, i32 3
  %54 = getelementptr inbounds %struct.anon, ptr %53, i32 0, i32 0
  %55 = load ptr, ptr %54, align 8
  %56 = load ptr, ptr %3, align 8
  %57 = getelementptr inbounds %struct._phpdbg_param, ptr %56, i32 0, i32 3
  %58 = getelementptr inbounds %struct.anon, ptr %57, i32 0, i32 1
  %59 = load i64, ptr %58, align 8
  %60 = load ptr, ptr %3, align 8
  %61 = getelementptr inbounds %struct._phpdbg_param, ptr %60, i32 0, i32 1
  %62 = load i64, ptr %61, align 8
  %63 = call i32 (ptr, ptr, ...) @asprintf(ptr noundef %51, ptr noundef @.str.14, ptr noundef %55, i64 noundef %59, i64 noundef %62) #12
  store i32 %63, ptr %9, align 4
  br label %75

64:                                               ; preds = %45
  %65 = load ptr, ptr %4, align 8
  %66 = load ptr, ptr %3, align 8
  %67 = getelementptr inbounds %struct._phpdbg_param, ptr %66, i32 0, i32 3
  %68 = getelementptr inbounds %struct.anon, ptr %67, i32 0, i32 0
  %69 = load ptr, ptr %68, align 8
  %70 = load ptr, ptr %3, align 8
  %71 = getelementptr inbounds %struct._phpdbg_param, ptr %70, i32 0, i32 3
  %72 = getelementptr inbounds %struct.anon, ptr %71, i32 0, i32 1
  %73 = load i64, ptr %72, align 8
  %74 = call i32 (ptr, ptr, ...) @asprintf(ptr noundef %65, ptr noundef @.str.15, ptr noundef %69, i64 noundef %73) #12
  store i32 %74, ptr %10, align 4
  br label %75

75:                                               ; preds = %64, %50
  br label %102

76:                                               ; preds = %2
  %77 = load ptr, ptr %4, align 8
  %78 = load ptr, ptr %3, align 8
  %79 = getelementptr inbounds %struct._phpdbg_param, ptr %78, i32 0, i32 5
  %80 = load ptr, ptr %79, align 8
  %81 = load ptr, ptr %3, align 8
  %82 = getelementptr inbounds %struct._phpdbg_param, ptr %81, i32 0, i32 1
  %83 = load i64, ptr %82, align 8
  %84 = call i32 (ptr, ptr, ...) @asprintf(ptr noundef %77, ptr noundef @.str.16, ptr noundef %80, i64 noundef %83) #12
  store i32 %84, ptr %11, align 4
  br label %102

85:                                               ; preds = %2
  %86 = load ptr, ptr %4, align 8
  %87 = load ptr, ptr %3, align 8
  %88 = getelementptr inbounds %struct._phpdbg_param, ptr %87, i32 0, i32 4
  %89 = getelementptr inbounds %struct.anon.0, ptr %88, i32 0, i32 0
  %90 = load ptr, ptr %89, align 8
  %91 = load ptr, ptr %3, align 8
  %92 = getelementptr inbounds %struct._phpdbg_param, ptr %91, i32 0, i32 4
  %93 = getelementptr inbounds %struct.anon.0, ptr %92, i32 0, i32 1
  %94 = load ptr, ptr %93, align 8
  %95 = load ptr, ptr %3, align 8
  %96 = getelementptr inbounds %struct._phpdbg_param, ptr %95, i32 0, i32 1
  %97 = load i64, ptr %96, align 8
  %98 = call i32 (ptr, ptr, ...) @asprintf(ptr noundef %86, ptr noundef @.str.17, ptr noundef %90, ptr noundef %94, i64 noundef %97) #12
  store i32 %98, ptr %12, align 4
  br label %102

99:                                               ; preds = %2
  %100 = call noalias ptr @strdup(ptr noundef @.str.9) #12
  %101 = load ptr, ptr %4, align 8
  store ptr %100, ptr %101, align 8
  br label %102

102:                                              ; preds = %99, %85, %76, %75, %34, %28, %22, %16
  %103 = load ptr, ptr %4, align 8
  %104 = load ptr, ptr %103, align 8
  ret ptr %104
}