; Function Attrs: nounwind uwtable
define ptr @phpdbg_param_tostring(ptr nocapture noundef readonly %0, ptr noundef %1) local_unnamed_addr #1 {
  %3 = load i32, ptr %0, align 8
  switch i32 %3, label %47 [
    i32 5, label %4
    i32 1, label %8
    i32 6, label %12
    i32 4, label %16
    i32 2, label %22
    i32 7, label %33
    i32 8, label %39
  ]

4:                                                ; preds = %2
  %5 = getelementptr inbounds i8, ptr %0, i64 56
  %6 = load ptr, ptr %5, align 8
  %7 = tail call i32 (ptr, ptr, ...) @asprintf(ptr noundef %1, ptr noundef nonnull @.str.10, ptr noundef %6) #22
  br label %49

8:                                                ; preds = %2
  %9 = getelementptr inbounds i8, ptr %0, i64 16
  %10 = load i64, ptr %9, align 8
  %11 = tail call i32 (ptr, ptr, ...) @asprintf(ptr noundef %1, ptr noundef nonnull @.str.11, i64 noundef %10) #22
  br label %49

12:                                               ; preds = %2
  %13 = getelementptr inbounds i8, ptr %0, i64 8
  %14 = load i64, ptr %13, align 8
  %15 = tail call i32 (ptr, ptr, ...) @asprintf(ptr noundef %1, ptr noundef nonnull @.str.12, i64 noundef %14) #22
  br label %49

16:                                               ; preds = %2
  %17 = getelementptr inbounds i8, ptr %0, i64 40
  %18 = load ptr, ptr %17, align 8
  %19 = getelementptr inbounds i8, ptr %0, i64 48
  %20 = load ptr, ptr %19, align 8
  %21 = tail call i32 (ptr, ptr, ...) @asprintf(ptr noundef %1, ptr noundef nonnull @.str.13, ptr noundef %18, ptr noundef %20) #22
  br label %49

22:                                               ; preds = %2
  %23 = getelementptr inbounds i8, ptr %0, i64 8
  %24 = load i64, ptr %23, align 8
  %.not = icmp eq i64 %24, 0
  %25 = getelementptr inbounds i8, ptr %0, i64 24
  %26 = load ptr, ptr %25, align 8
  %27 = getelementptr inbounds i8, ptr %0, i64 32
  %28 = load i64, ptr %27, align 8
  br i1 %.not, label %31, label %29

29:                                               ; preds = %22
  %30 = tail call i32 (ptr, ptr, ...) @asprintf(ptr noundef %1, ptr noundef nonnull @.str.14, ptr noundef %26, i64 noundef %28, i64 noundef %24) #22
  br label %49

31:                                               ; preds = %22
  %32 = tail call i32 (ptr, ptr, ...) @asprintf(ptr noundef %1, ptr noundef nonnull @.str.15, ptr noundef %26, i64 noundef %28) #22
  br label %49

33:                                               ; preds = %2
  %34 = getelementptr inbounds i8, ptr %0, i64 56
  %35 = load ptr, ptr %34, align 8
  %36 = getelementptr inbounds i8, ptr %0, i64 8
  %37 = load i64, ptr %36, align 8
  %38 = tail call i32 (ptr, ptr, ...) @asprintf(ptr noundef %1, ptr noundef nonnull @.str.16, ptr noundef %35, i64 noundef %37) #22
  br label %49

39:                                               ; preds = %2
  %40 = getelementptr inbounds i8, ptr %0, i64 40
  %41 = load ptr, ptr %40, align 8
  %42 = getelementptr inbounds i8, ptr %0, i64 48
  %43 = load ptr, ptr %42, align 8
  %44 = getelementptr inbounds i8, ptr %0, i64 8
  %45 = load i64, ptr %44, align 8
  %46 = tail call i32 (ptr, ptr, ...) @asprintf(ptr noundef %1, ptr noundef nonnull @.str.17, ptr noundef %41, ptr noundef %43, i64 noundef %45) #22
  br label %49

47:                                               ; preds = %2
  %48 = tail call noalias dereferenceable_or_null(8) ptr @strdup(ptr noundef nonnull @.str.9) #22
  store ptr %48, ptr %1, align 8
  br label %49

49:                                               ; preds = %29, %31, %47, %39, %33, %16, %12, %8, %4
  %50 = load ptr, ptr %1, align 8
  ret ptr %50
}